target datalayout = "e-m:e-p270:32:32-p271:32:32-p272:64:64-i64:64-i128:128-f80:128-n8:16:32:64-S128"
target triple = "x86_64-pc-linux-gnu"

%"struct.OpenColorIO_v2_5dev::Primaries" = type { %"struct.OpenColorIO_v2_5dev::Chromaticities", %"struct.OpenColorIO_v2_5dev::Chromaticities", %"struct.OpenColorIO_v2_5dev::Chromaticities", %"struct.OpenColorIO_v2_5dev::Chromaticities" }
%"struct.OpenColorIO_v2_5dev::Chromaticities" = type { [2 x double] }
%"class.std::shared_ptr" = type { %"class.std::__shared_ptr" }
%"class.std::__shared_ptr" = type { ptr, %"class.std::__shared_count" }
%"class.std::__shared_count" = type { ptr }

@_ZN19OpenColorIO_v2_5dev8ACES_AP19primariesE = external global %"struct.OpenColorIO_v2_5dev::Primaries", align 8

; Function Attrs: mustprogress uwtable
define hidden void @_ZN19OpenColorIO_v2_5dev11ACES_OUTPUT30Generate_sdr_primary_clamp_opsERNS_10OpRcPtrVecERKNS_9PrimariesE(ptr noundef nonnull align 8 dereferenceable(144) %0, ptr noundef nonnull align 8 dereferenceable(64) %1) #4 personality ptr @__gxx_personality_v0 {
  %3 = alloca ptr, align 8
  %4 = alloca ptr, align 8
  %5 = alloca %"class.std::shared_ptr", align 8
  %6 = alloca ptr, align 8
  %7 = alloca i32, align 4
  %8 = alloca %"class.std::shared_ptr", align 8
  store ptr %0, ptr %3, align 8, !tbaa !3
  store ptr %1, ptr %4, align 8, !tbaa !69
  call void @llvm.lifetime.start.p0(i64 16, ptr %5) #3
  %9 = load ptr, ptr %4, align 8, !tbaa !69
  call void @_ZN19OpenColorIO_v2_5dev23build_conversion_matrixERKNS_9PrimariesES2_NS_16AdaptationMethodE(ptr dead_on_unwind writable sret(%"class.std::shared_ptr") align 8 %5, ptr noundef nonnull align 8 dereferenceable(64) @_ZN19OpenColorIO_v2_5dev8ACES_AP19primariesE, ptr noundef nonnull align 8 dereferenceable(64) %9, i32 noundef 1)
  %10 = load ptr, ptr %3, align 8, !tbaa !3
  invoke void @_ZN19OpenColorIO_v2_5dev14CreateMatrixOpERNS_10OpRcPtrVecERSt10shared_ptrINS_12MatrixOpData11MatrixArrayEENS_18TransformDirectionE(ptr noundef nonnull align 8 dereferenceable(144) %10, ptr noundef nonnull align 8 dereferenceable(16) %5, i32 noundef 0)
          to label %11 unwind label %18

11:                                               ; preds = %2
  %12 = load ptr, ptr %3, align 8, !tbaa !3
  invoke void @_ZN19OpenColorIO_v2_5dev13CreateRangeOpERNS_10OpRcPtrVecEddddNS_18TransformDirectionE(ptr noundef nonnull align 8 dereferenceable(144) %12, double noundef 0.000000e+00, double noundef 1.000000e+00, double noundef 0.000000e+00, double noundef 1.000000e+00, i32 noundef 0)
          to label %13 unwind label %18

13:                                               ; preds = %11
  call void @llvm.lifetime.start.p0(i64 16, ptr %8) #3
  %14 = load ptr, ptr %4, align 8, !tbaa !69
  invoke void @_ZN19OpenColorIO_v2_5dev15rgb2xyz_from_xyERKNS_9PrimariesE(ptr dead_on_unwind writable sret(%"class.std::shared_ptr") align 8 %8, ptr noundef nonnull align 8 dereferenceable(64) %14)
          to label %15 unwind label %22

15:                                               ; preds = %13
  %16 = load ptr, ptr %3, align 8, !tbaa !3
  invoke void @_ZN19OpenColorIO_v2_5dev14CreateMatrixOpERNS_10OpRcPtrVecERSt10shared_ptrINS_12MatrixOpData11MatrixArrayEENS_18TransformDirectionE(ptr noundef nonnull align 8 dereferenceable(144) %16, ptr noundef nonnull align 8 dereferenceable(16) %8, i32 noundef 0)
          to label %17 unwind label %26

17:                                               ; preds = %15
  call void @_ZNSt12__shared_ptrIN19OpenColorIO_v2_5dev12MatrixOpData11MatrixArrayELN9__gnu_cxx12_Lock_policyE2EED2Ev(ptr noundef nonnull align 8 dereferenceable(16) %8) #3
  call void @llvm.lifetime.end.p0(i64 16, ptr %8) #3
  call void @_ZNSt12__shared_ptrIN19OpenColorIO_v2_5dev12MatrixOpData11MatrixArrayELN9__gnu_cxx12_Lock_policyE2EED2Ev(ptr noundef nonnull align 8 dereferenceable(16) %5) #3
  call void @llvm.lifetime.end.p0(i64 16, ptr %5) #3
  ret void

18:                                               ; preds = %11, %2
  %19 = landingpad { ptr, i32 }
          cleanup
  %20 = extractvalue { ptr, i32 } %19, 0
  store ptr %20, ptr %6, align 8
  %21 = extractvalue { ptr, i32 } %19, 1
  store i32 %21, ptr %7, align 4
  br label %31

22:                                               ; preds = %13
  %23 = landingpad { ptr, i32 }
          cleanup
  %24 = extractvalue { ptr, i32 } %23, 0
  store ptr %24, ptr %6, align 8
  %25 = extractvalue { ptr, i32 } %23, 1
  store i32 %25, ptr %7, align 4
  br label %30

26:                                               ; preds = %15
  %27 = landingpad { ptr, i32 }
          cleanup
  %28 = extractvalue { ptr, i32 } %27, 0
  store ptr %28, ptr %6, align 8
  %29 = extractvalue { ptr, i32 } %27, 1
  store i32 %29, ptr %7, align 4
  call void @_ZNSt12__shared_ptrIN19OpenColorIO_v2_5dev12MatrixOpData11MatrixArrayELN9__gnu_cxx12_Lock_policyE2EED2Ev(ptr noundef nonnull align 8 dereferenceable(16) %8) #3
  br label %30

30:                                               ; preds = %26, %22
  call void @llvm.lifetime.end.p0(i64 16, ptr %8) #3
  br label %31

31:                                               ; preds = %30, %18
  call void @_ZNSt12__shared_ptrIN19OpenColorIO_v2_5dev12MatrixOpData11MatrixArrayELN9__gnu_cxx12_Lock_policyE2EED2Ev(ptr noundef nonnull align 8 dereferenceable(16) %5) #3
  call void @llvm.lifetime.end.p0(i64 16, ptr %5) #3
  br label %32

32:                                               ; preds = %31
  %33 = load ptr, ptr %6, align 8
  %34 = load i32, ptr %7, align 4
  %35 = insertvalue { ptr, i32 } poison, ptr %33, 0
  %36 = insertvalue { ptr, i32 } %35, i32 %34, 1
  resume { ptr, i32 } %36
}